; Function Attrs: mustprogress nofree nounwind willreturn uwtable
define range(i32 -32, 1) i32 @pmix_bfrops_base_copy_endpoint(ptr noundef writeonly captures(none) %0, ptr noundef readonly captures(none) %1, i16 noundef zeroext %2) local_unnamed_addr #4 {
  %calloc.i.i = tail call dereferenceable_or_null(32) ptr @calloc(i64 1, i64 32)
  %4 = icmp eq ptr %calloc.i.i, null
  br i1 %4, label %pmix_bfrops_base_tma_copy_endpoint.exit, label %5, !prof !43

5:                                                ; preds = %3
  %6 = load ptr, ptr %1, align 8, !tbaa !159
  %.not.i = icmp eq ptr %6, null
  br i1 %.not.i, label %9, label %7

7:                                                ; preds = %5
  %8 = tail call noalias ptr @strdup(ptr noundef nonnull readonly %6) #23
  store ptr %8, ptr %calloc.i.i, align 8, !tbaa !159
  br label %9

9:                                                ; preds = %7, %5
  %10 = getelementptr inbounds nuw i8, ptr %1, i64 8
  %11 = load ptr, ptr %10, align 8, !tbaa !161
  %.not24.i = icmp eq ptr %11, null
  br i1 %.not24.i, label %15, label %12

12:                                               ; preds = %9
  %13 = tail call noalias ptr @strdup(ptr noundef nonnull readonly %11) #23
  %14 = getelementptr inbounds nuw i8, ptr %calloc.i.i, i64 8
  store ptr %13, ptr %14, align 8, !tbaa !161
  br label %15

15:                                               ; preds = %12, %9
  %16 = getelementptr inbounds nuw i8, ptr %1, i64 16
  %17 = load ptr, ptr %16, align 8, !tbaa !162
  %.not25.i = icmp eq ptr %17, null
  br i1 %.not25.i, label %24, label %18

18:                                               ; preds = %15
  %19 = getelementptr inbounds nuw i8, ptr %1, i64 24
  %20 = load i64, ptr %19, align 8, !tbaa !163
  %21 = tail call noalias noundef ptr @malloc(i64 noundef %20) #25
  %22 = getelementptr inbounds nuw i8, ptr %calloc.i.i, i64 16
  store ptr %21, ptr %22, align 8, !tbaa !162
  tail call void @llvm.memcpy.p0.p0.i64(ptr align 1 %21, ptr nonnull align 1 %17, i64 %20, i1 false)
  %23 = getelementptr inbounds nuw i8, ptr %calloc.i.i, i64 24
  store i64 %20, ptr %23, align 8, !tbaa !163
  br label %24

24:                                               ; preds = %18, %15
  store ptr %calloc.i.i, ptr %0, align 8, !tbaa !226
  br label %pmix_bfrops_base_tma_copy_endpoint.exit

pmix_bfrops_base_tma_copy_endpoint.exit:          ; preds = %3, %24
  %.0.i = phi i32 [ 0, %24 ], [ -32, %3 ]
  ret i32 %.0.i
}